; Function Attrs: null_pointer_is_valid sspstrong uwtable
define internal i32 @dissect_do_irp_tcp(ptr noundef %0, ptr noundef %1, ptr noundef %2, ptr noundef %3) #0 {
  %5 = tail call i32 @tvb_captured_length(ptr noundef %0)
  %6 = icmp ult i32 %5, 20
  br i1 %6, label %test_do_irp.exit.thread, label %7

7:                                                ; preds = %4
  %8 = tail call zeroext i8 @tvb_get_uint8(ptr noundef %0, i32 noundef 0)
  %9 = and i8 %8, -2
  %or.cond.not.i = icmp eq i8 %9, 2
  br i1 %or.cond.not.i, label %test_do_irp.exit, label %test_do_irp.exit.thread

test_do_irp.exit:                                 ; preds = %7
  %10 = tail call i32 @tvb_get_uint32(ptr noundef %0, i32 noundef 16, i32 noundef 0)
  %.not = icmp eq i32 %10, 0
  br i1 %.not, label %test_do_irp.exit.thread, label %11

11:                                               ; preds = %test_do_irp.exit
  tail call void @tcp_dissect_pdus(ptr noundef %0, ptr noundef %1, ptr noundef %2, i1 noundef zeroext true, i32 noundef 20, ptr noundef nonnull @get_do_irp_message_len, ptr noundef nonnull @dissect_do_irp_tcp_full_message, ptr noundef %3)
  %12 = tail call i32 @tvb_reported_length(ptr noundef %0)
  br label %test_do_irp.exit.thread

test_do_irp.exit.thread:                          ; preds = %7, %4, %test_do_irp.exit, %11
  %.0 = phi i32 [ %12, %11 ], [ 0, %test_do_irp.exit ], [ 0, %4 ], [ 0, %7 ]
  ret i32 %.0
}